; ModuleID = '10/2170.c'
source_filename = "10/2170.c"
target datalayout = "e-m:e-p270:32:32-p271:32:32-p272:64:64-i64:64-f80:128-n8:16:32:64-S128"
target triple = "x86_64-pc-linux-gnu"

@.str = private unnamed_addr constant [3 x i8] c"%d\00", align 1

; Function Attrs: noinline nounwind uwtable
define dso_local i32 @main() #0 {
  %1 = alloca i32, align 4
  %2 = alloca i32, align 4
  %3 = alloca i32*, align 8
  %4 = alloca i32, align 4
  %5 = alloca i32*, align 8
  %6 = alloca i32, align 4
  %7 = alloca i32, align 4
  %8 = alloca i32, align 4
  %9 = alloca i32, align 4
  %10 = alloca i32, align 4
  store i32 0, i32* %1, align 4
  %11 = call i32 (i8*, ...) @__isoc99_scanf(i8* getelementptr inbounds ([3 x i8], [3 x i8]* @.str, i64 0, i64 0), i32* %2)
  %12 = load i32, i32* %2, align 4
  %13 = add nsw i32 %12, 1
  %14 = sext i32 %13 to i64
  %15 = mul i64 %14, 4
  %16 = call noalias i8* @malloc(i64 %15) #3
  %17 = bitcast i8* %16 to i32*
  store i32* %17, i32** %3, align 8
  store i32 1, i32* %4, align 4
  br label %18

18:                                               ; preds = %28, %0
  %19 = load i32, i32* %4, align 4
  %20 = load i32, i32* %2, align 4
  %21 = icmp sle i32 %19, %20
  br i1 %21, label %22, label %31

22:                                               ; preds = %18
  %23 = load i32*, i32** %3, align 8
  %24 = load i32, i32* %4, align 4
  %25 = sext i32 %24 to i64
  %26 = getelementptr inbounds i32, i32* %23, i64 %25
  %27 = call i32 (i8*, ...) @__isoc99_scanf(i8* getelementptr inbounds ([3 x i8], [3 x i8]* @.str, i64 0, i64 0), i32* %26)
  br label %28

28:                                               ; preds = %22
  %29 = load i32, i32* %4, align 4
  %30 = add nsw i32 %29, 1
  store i32 %30, i32* %4, align 4
  br label %18

31:                                               ; preds = %18
  %32 = load i32, i32* %2, align 4
  %33 = add nsw i32 %32, 1
  %34 = sext i32 %33 to i64
  %35 = mul i64 %34, 4
  %36 = call noalias i8* @malloc(i64 %35) #3
  %37 = bitcast i8* %36 to i32*
  store i32* %37, i32** %5, align 8
  %38 = load i32*, i32** %5, align 8
  %39 = getelementptr inbounds i32, i32* %38, i64 1
  store i32 1, i32* %39, align 4
  store i32 2, i32* %6, align 4
  br label %40

40:                                               ; preds = %87, %31
  %41 = load i32, i32* %6, align 4
  %42 = load i32, i32* %2, align 4
  %43 = icmp sle i32 %41, %42
  br i1 %43, label %44, label %90

44:                                               ; preds = %40
  store i32 0, i32* %7, align 4
  store i32 1, i32* %8, align 4
  br label %45

45:                                               ; preds = %77, %44
  %46 = load i32, i32* %8, align 4
  %47 = load i32, i32* %6, align 4
  %48 = icmp slt i32 %46, %47
  br i1 %48, label %49, label %80

49:                                               ; preds = %45
  %50 = load i32*, i32** %3, align 8
  %51 = load i32, i32* %8, align 4
  %52 = sext i32 %51 to i64
  %53 = getelementptr inbounds i32, i32* %50, i64 %52
  %54 = load i32, i32* %53, align 4
  %55 = load i32*, i32** %3, align 8
  %56 = load i32, i32* %6, align 4
  %57 = sext i32 %56 to i64
  %58 = getelementptr inbounds i32, i32* %55, i64 %57
  %59 = load i32, i32* %58, align 4
  %60 = icmp sge i32 %54, %59
  br i1 %60, label %61, label %76

61:                                               ; preds = %49
  %62 = load i32*, i32** %5, align 8
  %63 = load i32, i32* %8, align 4
  %64 = sext i32 %63 to i64
  %65 = getelementptr inbounds i32, i32* %62, i64 %64
  %66 = load i32, i32* %65, align 4
  %67 = load i32, i32* %7, align 4
  %68 = icmp sgt i32 %66, %67
  br i1 %68, label %69, label %75

69:                                               ; preds = %61
  %70 = load i32*, i32** %5, align 8
  %71 = load i32, i32* %8, align 4
  %72 = sext i32 %71 to i64
  %73 = getelementptr inbounds i32, i32* %70, i64 %72
  %74 = load i32, i32* %73, align 4
  store i32 %74, i32* %7, align 4
  br label %75

75:                                               ; preds = %69, %61
  br label %76

76:                                               ; preds = %75, %49
  br label %77

77:                                               ; preds = %76
  %78 = load i32, i32* %8, align 4
  %79 = add nsw i32 %78, 1
  store i32 %79, i32* %8, align 4
  br label %45

80:                                               ; preds = %45
  %81 = load i32, i32* %7, align 4
  %82 = add nsw i32 %81, 1
  %83 = load i32*, i32** %5, align 8
  %84 = load i32, i32* %6, align 4
  %85 = sext i32 %84 to i64
  %86 = getelementptr inbounds i32, i32* %83, i64 %85
  store i32 %82, i32* %86, align 4
  br label %87

87:                                               ; preds = %80
  %88 = load i32, i32* %6, align 4
  %89 = add nsw i32 %88, 1
  store i32 %89, i32* %6, align 4
  br label %40

90:                                               ; preds = %40
  store i32 -1, i32* %9, align 4
  store i32 1, i32* %10, align 4
  br label %91

91:                                               ; preds = %110, %90
  %92 = load i32, i32* %10, align 4
  %93 = load i32, i32* %2, align 4
  %94 = icmp sle i32 %92, %93
  br i1 %94, label %95, label %113

95:                                               ; preds = %91
  %96 = load i32*, i32** %5, align 8
  %97 = load i32, i32* %10, align 4
  %98 = sext i32 %97 to i64
  %99 = getelementptr inbounds i32, i32* %96, i64 %98
  %100 = load i32, i32* %99, align 4
  %101 = load i32, i32* %9, align 4
  %102 = icmp sgt i32 %100, %101
  br i1 %102, label %103, label %109

103:                                              ; preds = %95
  %104 = load i32*, i32** %5, align 8
  %105 = load i32, i32* %10, align 4
  %106 = sext i32 %105 to i64
  %107 = getelementptr inbounds i32, i32* %104, i64 %106
  %108 = load i32, i32* %107, align 4
  store i32 %108, i32* %9, align 4
  br label %109

109:                                              ; preds = %103, %95
  br label %110

110:                                              ; preds = %109
  %111 = load i32, i32* %10, align 4
  %112 = add nsw i32 %111, 1
  store i32 %112, i32* %10, align 4
  br label %91

113:                                              ; preds = %91
  %114 = load i32, i32* %9, align 4
  %115 = call i32 (i8*, ...) @printf(i8* getelementptr inbounds ([3 x i8], [3 x i8]* @.str, i64 0, i64 0), i32 %114)
  %116 = load i32, i32* %1, align 4
  ret i32 %116
}

declare dso_local i32 @__isoc99_scanf(i8*, ...) #1

; Function Attrs: nounwind
declare dso_local noalias i8* @malloc(i64) #2

declare dso_local i32 @printf(i8*, ...) #1


!llvm.module.flags = !{!0}
!llvm.ident = !{!1}

!0 = !{i32 1, !"wchar_size", i32 4}
!1 = !{!"clang version 10.0.0-4ubuntu1 "}
